target datalayout = "e-m:e-p270:32:32-p271:32:32-p272:64:64-i64:64-i128:128-f80:128-n8:16:32:64-S128"
target triple = "x86_64-pc-linux-gnu"

%"class.llvm::SmallVectorBase" = type { ptr, i32, i32 }
%"class.llvm::SmallPtrSetImplBase.base" = type <{ ptr, ptr, i32, i32, i32 }>
%"class.llvm::GVNExpression::BasicExpression" = type { %"class.llvm::GVNExpression::Expression", ptr, i32, i32, ptr }
%"class.llvm::GVNExpression::Expression" = type { ptr, i32, i32, %"class.llvm::hash_code" }
%"class.llvm::hash_code" = type { i64 }
%"class.(anonymous namespace)::NewGVN" = type { ptr, ptr, ptr, ptr, ptr, ptr, ptr, ptr, %"class.std::unique_ptr.94", %"class.llvm::BumpPtrAllocatorImpl", %"class.llvm::ArrayRecycler", %"struct.(anonymous namespace)::TarjanSCC", %"struct.llvm::SimplifyQuery", i32, [4 x i8], %"class.llvm::DenseMap.134", ptr, %"class.std::vector.137", i32, [4 x i8], %"class.llvm::DenseMap.142", %"class.llvm::DenseMap.145", %"class.llvm::SmallPtrSet.148", %"class.llvm::DenseMap.151", i32, [4 x i8], %"class.llvm::DenseMap.154", %"class.llvm::DenseMap.157", %"class.llvm::DenseMap.160", %"class.llvm::DenseMap.163", %"class.llvm::DenseMap.166", %"class.llvm::DenseSet", %"class.llvm::DenseMap.172", %"class.llvm::DenseMap.175", %"class.llvm::DenseMap.178", %"class.llvm::DenseMap.181", %"class.llvm::DenseMap.184", %"class.llvm::DenseMap.187", %"class.llvm::DenseMap.190", ptr, %"class.llvm::SmallPtrSet.193", %"class.llvm::DenseSet.196", %"class.llvm::SmallPtrSet.201", %"class.llvm::BitVector", %"class.llvm::DenseMap.207", %"class.llvm::DenseMap.210", %"class.llvm::DenseMap.121", %"class.llvm::SmallVector.213", %"class.llvm::SmallPtrSet.218", %"struct.llvm::DebugCounter::CounterState" }
%"class.std::unique_ptr.94" = type { %"struct.std::__uniq_ptr_data.95" }
%"struct.std::__uniq_ptr_data.95" = type { %"class.std::__uniq_ptr_impl.96" }
%"class.std::__uniq_ptr_impl.96" = type { %"class.std::tuple.97" }
%"class.std::tuple.97" = type { %"struct.std::_Tuple_impl.98" }
%"struct.std::_Tuple_impl.98" = type { %"struct.std::_Head_base.101" }
%"struct.std::_Head_base.101" = type { ptr }
%"class.llvm::BumpPtrAllocatorImpl" = type { ptr, ptr, %"class.llvm::SmallVector.103", %"class.llvm::SmallVector.108", i64, i64 }
%"class.llvm::SmallVector.103" = type { %"class.llvm::SmallVectorImpl.104", %"struct.llvm::SmallVectorStorage.107" }
%"class.llvm::SmallVectorImpl.104" = type { %"class.llvm::SmallVectorTemplateBase.105" }
%"class.llvm::SmallVectorTemplateBase.105" = type { %"class.llvm::SmallVectorTemplateCommon.106" }
%"class.llvm::SmallVectorTemplateCommon.106" = type { %"class.llvm::SmallVectorBase" }
%"struct.llvm::SmallVectorStorage.107" = type { [32 x i8] }
%"class.llvm::SmallVector.108" = type { %"class.llvm::SmallVectorImpl.109" }
%"class.llvm::SmallVectorImpl.109" = type { %"class.llvm::SmallVectorTemplateBase.110" }
%"class.llvm::SmallVectorTemplateBase.110" = type { %"class.llvm::SmallVectorTemplateCommon.111" }
%"class.llvm::SmallVectorTemplateCommon.111" = type { %"class.llvm::SmallVectorBase" }
%"class.llvm::ArrayRecycler" = type { %"class.llvm::SmallVector.113" }
%"class.llvm::SmallVector.113" = type { %"class.llvm::SmallVectorImpl.114", %"struct.llvm::SmallVectorStorage.117" }
%"class.llvm::SmallVectorImpl.114" = type { %"class.llvm::SmallVectorTemplateBase.115" }
%"class.llvm::SmallVectorTemplateBase.115" = type { %"class.llvm::SmallVectorTemplateCommon.116" }
%"class.llvm::SmallVectorTemplateCommon.116" = type { %"class.llvm::SmallVectorBase" }
%"struct.llvm::SmallVectorStorage.117" = type { [64 x i8] }
%"struct.(anonymous namespace)::TarjanSCC" = type { i32, %"class.llvm::SmallPtrSet.118", %"class.llvm::DenseMap.121", %"class.llvm::SmallVector.124", %"class.llvm::SmallVector.129", %"class.llvm::DenseMap.121" }
%"class.llvm::SmallPtrSet.118" = type { %"class.llvm::SmallPtrSetImpl.base.120", [8 x ptr] }
%"class.llvm::SmallPtrSetImpl.base.120" = type { %"class.llvm::SmallPtrSetImplBase.base" }
%"class.llvm::SmallVector.124" = type { %"class.llvm::SmallVectorImpl.125", %"struct.llvm::SmallVectorStorage.128" }
%"class.llvm::SmallVectorImpl.125" = type { %"class.llvm::SmallVectorTemplateBase.126" }
%"class.llvm::SmallVectorTemplateBase.126" = type { %"class.llvm::SmallVectorTemplateCommon.127" }
%"class.llvm::SmallVectorTemplateCommon.127" = type { %"class.llvm::SmallVectorBase" }
%"struct.llvm::SmallVectorStorage.128" = type { [64 x i8] }
%"class.llvm::SmallVector.129" = type { %"class.llvm::SmallVectorImpl.130", %"struct.llvm::SmallVectorStorage.133" }
%"class.llvm::SmallVectorImpl.130" = type { %"class.llvm::SmallVectorTemplateBase.131" }
%"class.llvm::SmallVectorTemplateBase.131" = type { %"class.llvm::SmallVectorTemplateCommon.132" }
%"class.llvm::SmallVectorTemplateCommon.132" = type { %"class.llvm::SmallVectorBase" }
%"struct.llvm::SmallVectorStorage.133" = type { [768 x i8] }
%"struct.llvm::SimplifyQuery" = type <{ ptr, ptr, ptr, ptr, ptr, ptr, ptr, %"struct.llvm::InstrInfoQuery", i8, [6 x i8] }>
%"struct.llvm::InstrInfoQuery" = type { i8 }
%"class.llvm::DenseMap.134" = type <{ ptr, i32, i32, i32, [4 x i8] }>
%"class.std::vector.137" = type { %"struct.std::_Vector_base.138" }
%"struct.std::_Vector_base.138" = type { %"struct.std::_Vector_base<(anonymous namespace)::CongruenceClass *, std::allocator<(anonymous namespace)::CongruenceClass *>>::_Vector_impl" }
%"struct.std::_Vector_base<(anonymous namespace)::CongruenceClass *, std::allocator<(anonymous namespace)::CongruenceClass *>>::_Vector_impl" = type { %"struct.std::_Vector_base<(anonymous namespace)::CongruenceClass *, std::allocator<(anonymous namespace)::CongruenceClass *>>::_Vector_impl_data" }
%"struct.std::_Vector_base<(anonymous namespace)::CongruenceClass *, std::allocator<(anonymous namespace)::CongruenceClass *>>::_Vector_impl_data" = type { ptr, ptr, ptr }
%"class.llvm::DenseMap.142" = type <{ ptr, i32, i32, i32, [4 x i8] }>
%"class.llvm::DenseMap.145" = type <{ ptr, i32, i32, i32, [4 x i8] }>
%"class.llvm::SmallPtrSet.148" = type { %"class.llvm::SmallPtrSetImpl.base.150", [8 x ptr] }
%"class.llvm::SmallPtrSetImpl.base.150" = type { %"class.llvm::SmallPtrSetImplBase.base" }
%"class.llvm::DenseMap.151" = type <{ ptr, i32, i32, i32, [4 x i8] }>
%"class.llvm::DenseMap.154" = type <{ ptr, i32, i32, i32, [4 x i8] }>
%"class.llvm::DenseMap.157" = type <{ ptr, i32, i32, i32, [4 x i8] }>
%"class.llvm::DenseMap.160" = type <{ ptr, i32, i32, i32, [4 x i8] }>
%"class.llvm::DenseMap.163" = type <{ ptr, i32, i32, i32, [4 x i8] }>
%"class.llvm::DenseMap.166" = type <{ ptr, i32, i32, i32, [4 x i8] }>
%"class.llvm::DenseSet" = type { %"class.llvm::detail::DenseSetImpl" }
%"class.llvm::detail::DenseSetImpl" = type { %"class.llvm::DenseMap.169" }
%"class.llvm::DenseMap.169" = type <{ ptr, i32, i32, i32, [4 x i8] }>
%"class.llvm::DenseMap.172" = type <{ ptr, i32, i32, i32, [4 x i8] }>
%"class.llvm::DenseMap.175" = type <{ ptr, i32, i32, i32, [4 x i8] }>
%"class.llvm::DenseMap.178" = type <{ ptr, i32, i32, i32, [4 x i8] }>
%"class.llvm::DenseMap.181" = type <{ ptr, i32, i32, i32, [4 x i8] }>
%"class.llvm::DenseMap.184" = type <{ ptr, i32, i32, i32, [4 x i8] }>
%"class.llvm::DenseMap.187" = type <{ ptr, i32, i32, i32, [4 x i8] }>
%"class.llvm::DenseMap.190" = type <{ ptr, i32, i32, i32, [4 x i8] }>
%"class.llvm::SmallPtrSet.193" = type { %"class.llvm::SmallPtrSetImpl.base.195", [8 x ptr] }
%"class.llvm::SmallPtrSetImpl.base.195" = type { %"class.llvm::SmallPtrSetImplBase.base" }
%"class.llvm::DenseSet.196" = type { %"class.llvm::detail::DenseSetImpl.197" }
%"class.llvm::detail::DenseSetImpl.197" = type { %"class.llvm::DenseMap.198" }
%"class.llvm::DenseMap.198" = type <{ ptr, i32, i32, i32, [4 x i8] }>
%"class.llvm::SmallPtrSet.201" = type { %"class.llvm::SmallPtrSetImpl.base.66", [8 x ptr] }
%"class.llvm::SmallPtrSetImpl.base.66" = type { %"class.llvm::SmallPtrSetImplBase.base" }
%"class.llvm::BitVector" = type <{ %"class.llvm::SmallVector.202", i32, [4 x i8] }>
%"class.llvm::SmallVector.202" = type { %"class.llvm::SmallVectorImpl.203", %"struct.llvm::SmallVectorStorage.206" }
%"class.llvm::SmallVectorImpl.203" = type { %"class.llvm::SmallVectorTemplateBase.204" }
%"class.llvm::SmallVectorTemplateBase.204" = type { %"class.llvm::SmallVectorTemplateCommon.205" }
%"class.llvm::SmallVectorTemplateCommon.205" = type { %"class.llvm::SmallVectorBase" }
%"struct.llvm::SmallVectorStorage.206" = type { [48 x i8] }
%"class.llvm::DenseMap.207" = type <{ ptr, i32, i32, i32, [4 x i8] }>
%"class.llvm::DenseMap.210" = type <{ ptr, i32, i32, i32, [4 x i8] }>
%"class.llvm::DenseMap.121" = type <{ ptr, i32, i32, i32, [4 x i8] }>
%"class.llvm::SmallVector.213" = type { %"class.llvm::SmallVectorImpl.214", %"struct.llvm::SmallVectorStorage.217" }
%"class.llvm::SmallVectorImpl.214" = type { %"class.llvm::SmallVectorTemplateBase.215" }
%"class.llvm::SmallVectorTemplateBase.215" = type { %"class.llvm::SmallVectorTemplateCommon.216" }
%"class.llvm::SmallVectorTemplateCommon.216" = type { %"class.llvm::SmallVectorBase" }
%"struct.llvm::SmallVectorStorage.217" = type { [256 x i8] }
%"class.llvm::SmallPtrSet.218" = type { %"class.llvm::SmallPtrSetImpl.base.220", [8 x ptr] }
%"class.llvm::SmallPtrSetImpl.base.220" = type { %"class.llvm::SmallPtrSetImplBase.base" }
%"struct.llvm::DebugCounter::CounterState" = type { i64, i64 }
%"class.llvm::ArrayRecycler<llvm::Value *>::Capacity" = type { i8 }
%"struct.llvm::ArrayRecycler<llvm::Value *>::FreeList" = type { ptr }

; Function Attrs: mustprogress nounwind uwtable
define linkonce_odr hidden noundef ptr @_ZN4llvm25SmallVectorTemplateCommonIPNS_13ArrayRecyclerIPNS_5ValueELm8EE8FreeListEvE5beginEv(ptr noundef nonnull align 8 dereferenceable(16) %0) #1 comdat align 2 {
  %2 = alloca ptr, align 8
  store ptr %0, ptr %2, align 8
  %3 = load ptr, ptr %2, align 8
  %4 = getelementptr inbounds nuw %"class.llvm::SmallVectorBase", ptr %3, i32 0, i32 0
  %5 = load ptr, ptr %4, align 8
  ret ptr %5
}

; Function Attrs: mustprogress nounwind uwtable
define linkonce_odr hidden noundef i32 @_ZN4llvm6detail19LeadingZerosCounterImLm8EE5countEm(i64 noundef %0) #1 comdat align 2 {
  %2 = alloca i32, align 4
  %3 = alloca i64, align 8
  store i64 %0, ptr %3, align 8
  %4 = load i64, ptr %3, align 8
  %5 = icmp eq i64 %4, 0
  br i1 %5, label %6, label %7

6:                                                ; preds = %1
  store i32 64, ptr %2, align 4
  br label %11

7:                                                ; preds = %1
  %8 = load i64, ptr %3, align 8
  %9 = call i64 @llvm.ctlz.i64(i64 %8, i1 true)
  %10 = trunc i64 %9 to i32
  store i32 %10, ptr %2, align 4
  br label %11

11:                                               ; preds = %7, %6
  %12 = load i32, ptr %2, align 4
  ret i32 %12
}

; Function Attrs: mustprogress nounwind uwtable
define linkonce_odr hidden noundef nonnull align 8 dereferenceable(8) ptr @_ZN4llvm25SmallVectorTemplateCommonIPNS_13ArrayRecyclerIPNS_5ValueELm8EE8FreeListEvEixEm(ptr noundef nonnull align 8 dereferenceable(16) %0, i64 noundef %1) #1 comdat align 2 {
  %3 = alloca ptr, align 8
  %4 = alloca i64, align 8
  store ptr %0, ptr %3, align 8
  store i64 %1, ptr %4, align 8
  %5 = load ptr, ptr %3, align 8
  %6 = call noundef ptr @_ZN4llvm25SmallVectorTemplateCommonIPNS_13ArrayRecyclerIPNS_5ValueELm8EE8FreeListEvE5beginEv(ptr noundef nonnull align 8 dereferenceable(16) %5)
  %7 = load i64, ptr %4, align 8
  %8 = getelementptr inbounds ptr, ptr %6, i64 %7
  ret ptr %8
}

; Function Attrs: mustprogress nounwind uwtable
define linkonce_odr hidden void @_ZN4llvm15SmallVectorImplIPNS_13ArrayRecyclerIPNS_5ValueELm8EE8FreeListEE6resizeEm(ptr noundef nonnull align 8 dereferenceable(16) %0, i64 noundef %1) #1 comdat align 2 {
  %3 = alloca ptr, align 8
  %4 = alloca i64, align 8
  store ptr %0, ptr %3, align 8
  store i64 %1, ptr %4, align 8
  %5 = load ptr, ptr %3, align 8
  %6 = load i64, ptr %4, align 8
  call void @_ZN4llvm15SmallVectorImplIPNS_13ArrayRecyclerIPNS_5ValueELm8EE8FreeListEE10resizeImplILb0EEEvm(ptr noundef nonnull align 8 dereferenceable(16) %5, i64 noundef %6)
  ret void
}

; Function Attrs: mustprogress nounwind uwtable
define linkonce_odr noundef i32 @_ZN4llvm11countl_zeroImEEiT_(i64 noundef %0) #1 comdat {
  %2 = alloca i64, align 8
  store i64 %0, ptr %2, align 8
  %3 = load i64, ptr %2, align 8
  %4 = call noundef i32 @_ZN4llvm6detail19LeadingZerosCounterImLm8EE5countEm(i64 noundef %3)
  ret i32 %4
}

; Function Attrs: mustprogress nounwind uwtable
define linkonce_odr hidden void @_ZN4llvm20BumpPtrAllocatorImplINS_15MallocAllocatorELm4096ELm4096ELm128EE10DeallocateEPKvmm(ptr noundef nonnull align 8 dereferenceable(96) %0, ptr noundef %1, i64 noundef %2, i64 noundef %3) #1 comdat align 2 {
  %5 = alloca ptr, align 8
  %6 = alloca ptr, align 8
  %7 = alloca i64, align 8
  %8 = alloca i64, align 8
  store ptr %0, ptr %5, align 8
  store ptr %1, ptr %6, align 8
  store i64 %2, ptr %7, align 8
  store i64 %3, ptr %8, align 8
  ret void
}

; Function Attrs: mustprogress nounwind uwtable
define linkonce_odr hidden void @_ZN4llvm13ArrayRecyclerIPNS_5ValueELm8EE4pushEjPS2_(ptr noundef nonnull align 8 dereferenceable(80) %0, i32 noundef %1, ptr noundef %2) #1 comdat align 2 {
  %4 = alloca ptr, align 8
  %5 = alloca i32, align 4
  %6 = alloca ptr, align 8
  %7 = alloca ptr, align 8
  store ptr %0, ptr %4, align 8
  store i32 %1, ptr %5, align 4
  store ptr %2, ptr %6, align 8
  %8 = load ptr, ptr %4, align 8
  %9 = load ptr, ptr %6, align 8
  store ptr %9, ptr %7, align 8
  %10 = load i32, ptr %5, align 4
  %11 = zext i32 %10 to i64
  %12 = getelementptr inbounds nuw %"class.llvm::ArrayRecycler", ptr %8, i32 0, i32 0
  %13 = call noundef i64 @_ZNK4llvm15SmallVectorBaseIjE4sizeEv(ptr noundef nonnull align 8 dereferenceable(16) %12)
  %14 = icmp uge i64 %11, %13
  br i1 %14, label %15, label %20

15:                                               ; preds = %3
  %16 = getelementptr inbounds nuw %"class.llvm::ArrayRecycler", ptr %8, i32 0, i32 0
  %17 = load i32, ptr %5, align 4
  %18 = zext i32 %17 to i64
  %19 = add i64 %18, 1
  call void @_ZN4llvm15SmallVectorImplIPNS_13ArrayRecyclerIPNS_5ValueELm8EE8FreeListEE6resizeEm(ptr noundef nonnull align 8 dereferenceable(16) %16, i64 noundef %19)
  br label %20

20:                                               ; preds = %15, %3
  %21 = getelementptr inbounds nuw %"class.llvm::ArrayRecycler", ptr %8, i32 0, i32 0
  %22 = load i32, ptr %5, align 4
  %23 = zext i32 %22 to i64
  %24 = call noundef nonnull align 8 dereferenceable(8) ptr @_ZN4llvm25SmallVectorTemplateCommonIPNS_13ArrayRecyclerIPNS_5ValueELm8EE8FreeListEvEixEm(ptr noundef nonnull align 8 dereferenceable(16) %21, i64 noundef %23)
  %25 = load ptr, ptr %24, align 8
  %26 = load ptr, ptr %7, align 8
  %27 = getelementptr inbounds nuw %"struct.llvm::ArrayRecycler<llvm::Value *>::FreeList", ptr %26, i32 0, i32 0
  store ptr %25, ptr %27, align 8
  %28 = load ptr, ptr %7, align 8
  %29 = getelementptr inbounds nuw %"class.llvm::ArrayRecycler", ptr %8, i32 0, i32 0
  %30 = load i32, ptr %5, align 4
  %31 = zext i32 %30 to i64
  %32 = call noundef nonnull align 8 dereferenceable(8) ptr @_ZN4llvm25SmallVectorTemplateCommonIPNS_13ArrayRecyclerIPNS_5ValueELm8EE8FreeListEvEixEm(ptr noundef nonnull align 8 dereferenceable(16) %29, i64 noundef %31)
  store ptr %28, ptr %32, align 8
  ret void
}

; Function Attrs: mustprogress nounwind uwtable
define linkonce_odr hidden noundef i32 @_ZNK4llvm13ArrayRecyclerIPNS_5ValueELm8EE8Capacity9getBucketEv(ptr noundef nonnull align 1 dereferenceable(1) %0) #1 comdat align 2 {
  %2 = alloca ptr, align 8
  store ptr %0, ptr %2, align 8
  %3 = load ptr, ptr %2, align 8
  %4 = getelementptr inbounds nuw %"class.llvm::ArrayRecycler<llvm::Value *>::Capacity", ptr %3, i32 0, i32 0
  %5 = load i8, ptr %4, align 1
  %6 = zext i8 %5 to i32
  ret i32 %6
}

; Function Attrs: mustprogress nounwind uwtable
define linkonce_odr hidden void @_ZN4llvm13ArrayRecyclerIPNS_5ValueELm8EE8CapacityC2Eh(ptr noundef nonnull align 1 dereferenceable(1) %0, i8 noundef zeroext %1) unnamed_addr #1 comdat align 2 {
  %3 = alloca ptr, align 8
  %4 = alloca i8, align 1
  store ptr %0, ptr %3, align 8
  store i8 %1, ptr %4, align 1
  %5 = load ptr, ptr %3, align 8
  %6 = getelementptr inbounds nuw %"class.llvm::ArrayRecycler<llvm::Value *>::Capacity", ptr %5, i32 0, i32 0
  %7 = load i8, ptr %4, align 1
  store i8 %7, ptr %6, align 1
  ret void
}

; Function Attrs: mustprogress nounwind uwtable
define linkonce_odr hidden noundef i32 @_ZN4llvm12Log2_64_CeilEm(i64 noundef %0) #1 comdat {
  %2 = alloca i64, align 8
  store i64 %0, ptr %2, align 8
  %3 = load i64, ptr %2, align 8
  %4 = sub i64 %3, 1
  %5 = call noundef i32 @_ZN4llvm11countl_zeroImEEiT_(i64 noundef %4)
  %6 = sub nsw i32 64, %5
  ret i32 %6
}

; Function Attrs: mustprogress nounwind uwtable
define linkonce_odr hidden noundef ptr @_ZN4llvm16cast_convert_valINS_13GVNExpression15BasicExpressionEPKNS1_10ExpressionES5_E4doitES5_(ptr noundef %0) #1 comdat align 2 {
  %2 = alloca ptr, align 8
  store ptr %0, ptr %2, align 8
  %3 = load ptr, ptr %2, align 8
  ret ptr %3
}

; Function Attrs: mustprogress nounwind uwtable
define linkonce_odr hidden void @_ZN4llvm13AllocatorBaseINS_20BumpPtrAllocatorImplINS_15MallocAllocatorELm4096ELm4096ELm128EEEE10DeallocateEPKvmm(ptr noundef nonnull align 1 dereferenceable(1) %0, ptr noundef %1, i64 noundef %2, i64 noundef %3) #1 comdat align 2 {
  %5 = alloca ptr, align 8
  %6 = alloca ptr, align 8
  %7 = alloca i64, align 8
  %8 = alloca i64, align 8
  store ptr %0, ptr %5, align 8
  store ptr %1, ptr %6, align 8
  store i64 %2, ptr %7, align 8
  store i64 %3, ptr %8, align 8
  %9 = load ptr, ptr %5, align 8
  %10 = load ptr, ptr %6, align 8
  %11 = load i64, ptr %7, align 8
  %12 = load i64, ptr %8, align 8
  call void @_ZN4llvm20BumpPtrAllocatorImplINS_15MallocAllocatorELm4096ELm4096ELm128EE10DeallocateEPKvmm(ptr noundef nonnull align 8 dereferenceable(96) %9, ptr noundef %10, i64 noundef %11, i64 noundef %12)
  ret void
}

; Function Attrs: mustprogress nounwind uwtable
define linkonce_odr hidden void @_ZN4llvm13ArrayRecyclerIPNS_5ValueELm8EE10deallocateENS3_8CapacityEPS2_(ptr noundef nonnull align 8 dereferenceable(80) %0, i8 %1, ptr noundef %2) #1 comdat align 2 {
  %4 = alloca %"class.llvm::ArrayRecycler<llvm::Value *>::Capacity", align 1
  %5 = alloca ptr, align 8
  %6 = alloca ptr, align 8
  %7 = getelementptr inbounds nuw %"class.llvm::ArrayRecycler<llvm::Value *>::Capacity", ptr %4, i32 0, i32 0
  store i8 %1, ptr %7, align 1
  store ptr %0, ptr %5, align 8
  store ptr %2, ptr %6, align 8
  %8 = load ptr, ptr %5, align 8
  %9 = call noundef i32 @_ZNK4llvm13ArrayRecyclerIPNS_5ValueELm8EE8Capacity9getBucketEv(ptr noundef nonnull align 1 dereferenceable(1) %4)
  %10 = load ptr, ptr %6, align 8
  call void @_ZN4llvm13ArrayRecyclerIPNS_5ValueELm8EE4pushEjPS2_(ptr noundef nonnull align 8 dereferenceable(80) %8, i32 noundef %9, ptr noundef %10)
  ret void
}

; Function Attrs: mustprogress nounwind uwtable
define linkonce_odr hidden i8 @_ZN4llvm13ArrayRecyclerIPNS_5ValueELm8EE8Capacity3getEm(i64 noundef %0) #1 comdat align 2 {
  %2 = alloca %"class.llvm::ArrayRecycler<llvm::Value *>::Capacity", align 1
  %3 = alloca i64, align 8
  store i64 %0, ptr %3, align 8
  %4 = load i64, ptr %3, align 8
  %5 = icmp ne i64 %4, 0
  br i1 %5, label %6, label %9

6:                                                ; preds = %1
  %7 = load i64, ptr %3, align 8
  %8 = call noundef i32 @_ZN4llvm12Log2_64_CeilEm(i64 noundef %7)
  br label %10

9:                                                ; preds = %1
  br label %10

10:                                               ; preds = %9, %6
  %11 = phi i32 [ %8, %6 ], [ 0, %9 ]
  %12 = trunc i32 %11 to i8
  call void @_ZN4llvm13ArrayRecyclerIPNS_5ValueELm8EE8CapacityC2Eh(ptr noundef nonnull align 1 dereferenceable(1) %2, i8 noundef zeroext %12)
  %13 = getelementptr inbounds nuw %"class.llvm::ArrayRecycler<llvm::Value *>::Capacity", ptr %2, i32 0, i32 0
  %14 = load i8, ptr %13, align 1
  ret i8 %14
}

; Function Attrs: mustprogress nounwind uwtable
define linkonce_odr hidden noundef ptr @_ZN4llvm8CastInfoINS_13GVNExpression15BasicExpressionEPKNS1_10ExpressionEvE6doCastERKS5_(ptr noundef nonnull align 8 dereferenceable(8) %0) #1 comdat align 2 {
  %2 = alloca ptr, align 8
  store ptr %0, ptr %2, align 8
  %3 = load ptr, ptr %2, align 8
  %4 = load ptr, ptr %3, align 8
  %5 = call noundef ptr @_ZN4llvm16cast_convert_valINS_13GVNExpression15BasicExpressionEPKNS1_10ExpressionES5_E4doitES5_(ptr noundef %4)
  ret ptr %5
}

; Function Attrs: mustprogress nounwind uwtable
define linkonce_odr hidden void @_ZN4llvm13AllocatorBaseINS_20BumpPtrAllocatorImplINS_15MallocAllocatorELm4096ELm4096ELm128EEEE10DeallocateIKNS_13GVNExpression10ExpressionEEENSt9enable_ifIXntsr3stdE9is_same_vINSt9remove_cvIT_E4typeEvEEvE4typeEPSB_m(ptr noundef nonnull align 1 dereferenceable(1) %0, ptr noundef %1, i64 noundef %2) #1 comdat align 2 {
  %4 = alloca ptr, align 8
  %5 = alloca ptr, align 8
  %6 = alloca i64, align 8
  store ptr %0, ptr %4, align 8
  store ptr %1, ptr %5, align 8
  store i64 %2, ptr %6, align 8
  %7 = load ptr, ptr %4, align 8
  %8 = load ptr, ptr %5, align 8
  %9 = load i64, ptr %6, align 8
  %10 = mul i64 %9, 24
  call void @_ZN4llvm13AllocatorBaseINS_20BumpPtrAllocatorImplINS_15MallocAllocatorELm4096ELm4096ELm128EEEE10DeallocateEPKvmm(ptr noundef nonnull align 1 dereferenceable(1) %7, ptr noundef %8, i64 noundef %10, i64 noundef 8)
  ret void
}

; Function Attrs: mustprogress nounwind uwtable
define linkonce_odr hidden void @_ZN4llvm13GVNExpression15BasicExpression18deallocateOperandsERNS_13ArrayRecyclerIPNS_5ValueELm8EEE(ptr noundef nonnull align 8 dereferenceable(48) %0, ptr noundef nonnull align 8 dereferenceable(80) %1) #1 comdat align 2 {
  %3 = alloca ptr, align 8
  %4 = alloca ptr, align 8
  %5 = alloca %"class.llvm::ArrayRecycler<llvm::Value *>::Capacity", align 1
  store ptr %0, ptr %3, align 8
  store ptr %1, ptr %4, align 8
  %6 = load ptr, ptr %3, align 8
  %7 = load ptr, ptr %4, align 8
  %8 = getelementptr inbounds nuw %"class.llvm::GVNExpression::BasicExpression", ptr %6, i32 0, i32 2
  %9 = load i32, ptr %8, align 8
  %10 = zext i32 %9 to i64
  %11 = call i8 @_ZN4llvm13ArrayRecyclerIPNS_5ValueELm8EE8Capacity3getEm(i64 noundef %10)
  %12 = getelementptr inbounds nuw %"class.llvm::ArrayRecycler<llvm::Value *>::Capacity", ptr %5, i32 0, i32 0
  store i8 %11, ptr %12, align 1
  %13 = getelementptr inbounds nuw %"class.llvm::GVNExpression::BasicExpression", ptr %6, i32 0, i32 1
  %14 = load ptr, ptr %13, align 8
  %15 = getelementptr inbounds nuw %"class.llvm::ArrayRecycler<llvm::Value *>::Capacity", ptr %5, i32 0, i32 0
  %16 = load i8, ptr %15, align 1
  call void @_ZN4llvm13ArrayRecyclerIPNS_5ValueELm8EE10deallocateENS3_8CapacityEPS2_(ptr noundef nonnull align 8 dereferenceable(80) %7, i8 %16, ptr noundef %14)
  ret void
}

; Function Attrs: mustprogress nounwind uwtable
define linkonce_odr hidden noundef ptr @_ZN4llvm4castINS_13GVNExpression15BasicExpressionEKNS1_10ExpressionEEEDcPT0_(ptr noundef %0) #1 comdat {
  %2 = alloca ptr, align 8
  store ptr %0, ptr %2, align 8
  %3 = call noundef ptr @_ZN4llvm8CastInfoINS_13GVNExpression15BasicExpressionEPKNS1_10ExpressionEvE6doCastERKS5_(ptr noundef nonnull align 8 dereferenceable(8) %2)
  ret ptr %3
}

; Function Attrs: mustprogress nounwind uwtable
define internal void @_ZNK12_GLOBAL__N_16NewGVN16deleteExpressionEPKN4llvm13GVNExpression10ExpressionE(ptr noundef nonnull align 8 dereferenceable(2640) %0, ptr noundef %1) #1 align 2 {
  %3 = alloca ptr, align 8
  %4 = alloca ptr, align 8
  %5 = alloca ptr, align 8
  store ptr %0, ptr %3, align 8
  store ptr %1, ptr %4, align 8
  %6 = load ptr, ptr %3, align 8
  %7 = load ptr, ptr %4, align 8
  %8 = call noundef ptr @_ZN4llvm4castINS_13GVNExpression15BasicExpressionEKNS1_10ExpressionEEEDcPT0_(ptr noundef %7)
  store ptr %8, ptr %5, align 8
  %9 = load ptr, ptr %5, align 8
  %10 = getelementptr inbounds nuw %"class.(anonymous namespace)::NewGVN", ptr %6, i32 0, i32 10
  call void @_ZN4llvm13GVNExpression15BasicExpression18deallocateOperandsERNS_13ArrayRecyclerIPNS_5ValueELm8EEE(ptr noundef nonnull align 8 dereferenceable(48) %9, ptr noundef nonnull align 8 dereferenceable(80) %10)
  %11 = getelementptr inbounds nuw %"class.(anonymous namespace)::NewGVN", ptr %6, i32 0, i32 9
  %12 = load ptr, ptr %4, align 8
  call void @_ZN4llvm13AllocatorBaseINS_20BumpPtrAllocatorImplINS_15MallocAllocatorELm4096ELm4096ELm128EEEE10DeallocateIKNS_13GVNExpression10ExpressionEEENSt9enable_ifIXntsr3stdE9is_same_vINSt9remove_cvIT_E4typeEvEEvE4typeEPSB_m(ptr noundef nonnull align 1 dereferenceable(1) %11, ptr noundef %12, i64 noundef 1)
  ret void
}