; Function Attrs: mustprogress nounwind uwtable
define internal fastcc void @_ZNK12_GLOBAL__N_16NewGVN16deleteExpressionEPKN4llvm13GVNExpression10ExpressionE(ptr noundef nonnull align 8 dereferenceable(2640) %0, ptr nocapture noundef readonly %1) unnamed_addr #0 align 2 {
  %3 = getelementptr inbounds nuw i8, ptr %0, i64 168
  %4 = getelementptr inbounds nuw i8, ptr %1, i64 32
  %5 = load i32, ptr %4, align 8
  %.not.i.i = icmp eq i32 %5, 0
  br i1 %.not.i.i, label %_ZN4llvm13ArrayRecyclerIPNS_5ValueELm8EE8Capacity3getEm.exit.i, label %6

6:                                                ; preds = %2
  %7 = zext i32 %5 to i64
  %8 = add nsw i64 %7, -1
  %9 = tail call range(i64 0, 65) i64 @llvm.ctlz.i64(i64 %8, i1 false)
  %10 = sub nuw nsw i64 64, %9
  br label %_ZN4llvm13ArrayRecyclerIPNS_5ValueELm8EE8Capacity3getEm.exit.i

_ZN4llvm13ArrayRecyclerIPNS_5ValueELm8EE8Capacity3getEm.exit.i: ; preds = %6, %2
  %11 = phi i64 [ %10, %6 ], [ 0, %2 ]
  %12 = getelementptr inbounds nuw i8, ptr %1, i64 24
  %13 = load ptr, ptr %12, align 8
  %14 = tail call noundef i64 @_ZNK4llvm15SmallVectorBaseIjE4sizeEv(ptr noundef nonnull align 8 dereferenceable(16) %3) #27
  %.not.i.i.i = icmp ugt i64 %14, %11
  br i1 %.not.i.i.i, label %_ZN4llvm13GVNExpression15BasicExpression18deallocateOperandsERNS_13ArrayRecyclerIPNS_5ValueELm8EEE.exit, label %15

15:                                               ; preds = %_ZN4llvm13ArrayRecyclerIPNS_5ValueELm8EE8Capacity3getEm.exit.i
  %16 = add nuw nsw i64 %11, 1
  tail call void @_ZN4llvm15SmallVectorImplIPNS_13ArrayRecyclerIPNS_5ValueELm8EE8FreeListEE10resizeImplILb0EEEvm(ptr noundef nonnull align 8 dereferenceable(16) %3, i64 noundef %16)
  br label %_ZN4llvm13GVNExpression15BasicExpression18deallocateOperandsERNS_13ArrayRecyclerIPNS_5ValueELm8EEE.exit

_ZN4llvm13GVNExpression15BasicExpression18deallocateOperandsERNS_13ArrayRecyclerIPNS_5ValueELm8EEE.exit: ; preds = %_ZN4llvm13ArrayRecyclerIPNS_5ValueELm8EE8Capacity3getEm.exit.i, %15
  %17 = load ptr, ptr %3, align 8
  %18 = getelementptr inbounds ptr, ptr %17, i64 %11
  %19 = load ptr, ptr %18, align 8
  store ptr %19, ptr %13, align 8
  %20 = load ptr, ptr %3, align 8
  %21 = getelementptr inbounds ptr, ptr %20, i64 %11
  store ptr %13, ptr %21, align 8
  ret void
}